target datalayout = "e-m:e-p270:32:32-p271:32:32-p272:64:64-i64:64-i128:128-f80:128-n8:16:32:64-S128"
target triple = "x86_64-pc-linux-gnu"

%struct.AVFilterContext = type { ptr, ptr, ptr, ptr, ptr, i32, ptr, ptr, i32, ptr, ptr, i32, i32, ptr, ptr, ptr, ptr, i32, ptr, i32, i32 }
%struct.AVFilter = type { ptr, ptr, ptr, ptr, ptr, i32 }
%struct.AudioDeclickContext = type { ptr, double, double, double, double, double, i32, i32, i32, i32, i32, i32, i32, i32, ptr, ptr, ptr, ptr, ptr, ptr, i64, i32, i64, i64, i32, i32, ptr, ptr, ptr, ptr }

@.str.2 = private unnamed_addr constant [8 x i8] c"adeclip\00", align 1

; Function Attrs: cold nounwind optsize uwtable
define internal i32 @init(ptr noundef %0) #0 {
  %2 = alloca ptr, align 8
  %3 = alloca ptr, align 8
  store ptr %0, ptr %2, align 8, !tbaa !4
  call void @llvm.lifetime.start.p0(i64 8, ptr %3) #11
  %4 = load ptr, ptr %2, align 8, !tbaa !4
  %5 = getelementptr inbounds nuw %struct.AVFilterContext, ptr %4, i32 0, i32 9
  %6 = load ptr, ptr %5, align 8, !tbaa !9
  store ptr %6, ptr %3, align 8, !tbaa !22
  %7 = load ptr, ptr %2, align 8, !tbaa !4
  %8 = getelementptr inbounds nuw %struct.AVFilterContext, ptr %7, i32 0, i32 1
  %9 = load ptr, ptr %8, align 8, !tbaa !24
  %10 = getelementptr inbounds nuw %struct.AVFilter, ptr %9, i32 0, i32 0
  %11 = load ptr, ptr %10, align 8, !tbaa !25
  %12 = call i32 @strcmp(ptr noundef %11, ptr noundef @.str.2) #12
  %13 = icmp ne i32 %12, 0
  %14 = xor i1 %13, true
  %15 = zext i1 %14 to i32
  %16 = load ptr, ptr %3, align 8, !tbaa !22
  %17 = getelementptr inbounds nuw %struct.AudioDeclickContext, ptr %16, i32 0, i32 8
  store i32 %15, ptr %17, align 8, !tbaa !27
  %18 = load ptr, ptr %3, align 8, !tbaa !22
  %19 = getelementptr inbounds nuw %struct.AudioDeclickContext, ptr %18, i32 0, i32 8
  %20 = load i32, ptr %19, align 8, !tbaa !27
  %21 = icmp ne i32 %20, 0
  br i1 %21, label %22, label %25

22:                                               ; preds = %1
  %23 = load ptr, ptr %3, align 8, !tbaa !22
  %24 = getelementptr inbounds nuw %struct.AudioDeclickContext, ptr %23, i32 0, i32 29
  store ptr @detect_clips, ptr %24, align 8, !tbaa !34
  br label %28

25:                                               ; preds = %1
  %26 = load ptr, ptr %3, align 8, !tbaa !22
  %27 = getelementptr inbounds nuw %struct.AudioDeclickContext, ptr %26, i32 0, i32 29
  store ptr @detect_clicks, ptr %27, align 8, !tbaa !34
  br label %28

28:                                               ; preds = %25, %22
  call void @llvm.lifetime.end.p0(i64 8, ptr %3) #11
  ret i32 0
}