; Function Attrs: cold mustprogress nofree norecurse nounwind optsize willreturn memory(readwrite, inaccessiblemem: none) uwtable
define internal noundef i32 @init(ptr noundef readonly captures(none) %0) #0 {
  %2 = getelementptr inbounds nuw i8, ptr %0, i64 72
  %3 = load ptr, ptr %2, align 8, !tbaa !4
  %4 = getelementptr inbounds nuw i8, ptr %0, i64 8
  %5 = load ptr, ptr %4, align 8, !tbaa !20
  %6 = load ptr, ptr %5, align 8, !tbaa !21
  %7 = tail call i32 @strcmp(ptr noundef nonnull dereferenceable(1) %6, ptr noundef nonnull dereferenceable(8) @.str.2) #12
  %.not = icmp eq i32 %7, 0
  %8 = zext i1 %.not to i32
  %9 = getelementptr inbounds nuw i8, ptr %3, i64 56
  store i32 %8, ptr %9, align 8, !tbaa !23
  %spec.select = select i1 %.not, ptr @detect_clips, ptr @detect_clicks
  %10 = getelementptr inbounds nuw i8, ptr %3, i64 192
  store ptr %spec.select, ptr %10, align 8, !tbaa !30
  ret i32 0
}